Certificate:
    Data:
        Version: 3 (0x2)
        Serial Number:
            5e:f9:16:17:b8:59:17:4a:c3:34:7c:ec:d7:9d:fa:8d
    Signature Algorithm: sha256WithRSAEncryption
        Issuer: CN=Outscale
        Validity
            Not Before: Aug 18 12:05:37 2021 GMT
            Not After : Aug  8 12:05:37 2023 GMT
        Subject: CN=IT-2-PRD-rsyslog-1
        Subject Public Key Info:
            Public Key Algorithm: rsaEncryption
                Public-Key: (4096 bit)
                Modulus:
                    00:c5:ff:35:92:5f:ce:c4:61:48:ed:c0:08:91:af:
                    af:67:04:29:20:f8:28:7d:2c:5d:67:6e:bf:86:c7:
                    5b:a8:33:f3:a0:04:82:7d:0f:f3:07:7b:33:77:14:
                    09:62:3c:a3:a6:25:2e:ac:2a:cb:17:f4:b3:bc:56:
                    6e:92:22:d4:c9:aa:43:6f:4c:9e:d0:7f:f8:fd:cf:
                    68:61:15:a2:f2:63:58:93:36:bb:45:14:86:31:f9:
                    e7:74:23:f7:a6:c4:1b:ad:5b:ed:2d:1c:0f:19:4a:
                    69:b9:1b:98:c1:08:15:55:e4:fe:39:44:c0:34:7a:
                    f9:1e:6a:43:69:9d:d2:7c:f5:89:75:fa:26:2c:6f:
                    ef:77:72:94:20:56:6b:6b:af:7e:f1:be:55:e3:8b:
                    cc:c9:21:42:55:db:85:00:93:a9:6e:5a:44:37:b3:
                    3d:76:88:e8:62:67:1a:bb:b4:74:d1:35:63:60:28:
                    a6:06:81:c6:a4:ff:5e:78:7e:4d:3d:cf:2c:0f:d4:
                    ab:45:63:7b:dc:82:91:96:1f:d6:82:46:c8:54:39:
                    23:88:ba:ae:41:d3:c2:b0:a8:65:09:c8:72:4d:50:
                    ee:9e:e7:da:de:8f:a9:e1:81:f5:0f:d3:5f:80:61:
                    ad:bf:76:73:44:ca:3c:f0:34:e6:89:44:60:10:25:
                    dc:dd:0e:ce:eb:5b:56:68:6c:83:2a:43:24:4d:52:
                    6a:79:6b:0f:b1:1e:da:8b:e2:78:65:02:83:bd:63:
                    ae:f4:fc:e9:83:dc:25:78:2b:c6:c4:f7:35:71:86:
                    50:a2:ea:3c:11:46:6e:f2:ac:3d:c9:93:31:f3:5d:
                    b6:f1:8d:e1:a4:eb:53:70:92:05:39:0c:49:e6:fc:
                    55:b8:26:18:b7:ee:9f:bf:30:0e:7e:89:09:09:fe:
                    39:07:06:12:45:a9:9a:93:c2:14:12:18:c1:9b:af:
                    51:e6:9c:1b:b8:e9:4d:21:a3:5b:31:0f:5e:e0:38:
                    d1:0a:ea:73:55:30:18:55:22:34:8e:33:3e:7f:05:
                    ab:91:b5:f9:c2:ea:93:72:a1:3b:18:c3:bd:92:db:
                    92:01:b2:54:6c:a6:15:da:00:16:12:02:98:37:51:
                    ac:2a:ea:ae:54:d9:0d:8b:66:97:12:f5:1a:02:2b:
                    f5:f0:78:4d:43:46:20:08:c1:b5:f1:60:71:2b:4d:
                    ca:3e:aa:b7:e1:af:b3:f8:c2:50:e2:ec:eb:f9:dc:
                    b1:d7:3f:77:ed:9b:fe:81:e6:a0:29:6f:5c:34:e2:
                    97:36:c9:06:4a:4b:7a:4d:40:33:47:34:b9:26:2e:
                    8c:d8:c1:e2:61:23:15:59:14:32:a3:98:3e:fd:23:
                    65:44:b3
                Exponent: 65537 (0x10001)
        X509v3 extensions:
            X509v3 Basic Constraints:
                CA:FALSE
            X509v3 Subject Key Identifier:
                C8:6E:00:3A:61:29:C1:98:5F:C1:F8:A5:47:5A:D2:58:60:1C:E8:44
            X509v3 Authority Key Identifier:
                keyid:41:50:C7:AD:7A:B6:BC:34:E2:C4:7E:D8:01:18:42:BD:C5:DC:FF:E7
                DirName:/CN=Outscale
                serial:80:33:FA:60:50:07:7D:80

            X509v3 Key Usage:
                Digital Signature, Key Encipherment
            X509v3 Extended Key Usage:
                TLS Web Client Authentication
            X509v3 Subject Alternative Name:
                DNS:IT-2-PRD-rsyslog-1
    Signature Algorithm: sha256WithRSAEncryption
         94:a7:82:d8:d1:d8:ce:49:1d:fe:1e:de:95:df:02:f7:3b:c8:
         27:4a:02:88:ca:fd:70:ca:10:58:bd:6f:50:ee:89:28:a8:1d:
         66:3d:be:5d:44:e2:23:60:50:91:cf:42:7d:6c:42:31:23:2b:
         87:b4:e9:a8:ff:9e:38:d4:1a:94:1e:b7:d5:0d:13:7b:c7:a3:
         db:f0:fb:a2:8e:b8:6b:fd:e4:6b:17:cf:b8:12:cf:e4:7a:02:
         ce:ab:57:41:ba:e1:30:92:b0:e5:d2:3a:ae:bf:f4:07:9a:7b:
         6f:18:ff:9a:ba:21:2b:73:45:01:36:d0:ea:0e:06:1e:cf:41:
         f9:63:5c:57:a7:20:01:cb:f6:8b:7a:10:b5:4e:79:99:92:89:
         48:66:8a:c9:84:fb:04:25:27:01:bf:89:ed:9c:43:7d:e3:43:
         f3:41:5e:27:d2:57:98:a2:6b:c7:f4:1b:36:6a:95:59:6a:1e:
         9f:78:0e:ba:c5:6e:fc:89:97:0f:8b:40:e0:16:92:b5:3e:65:
         1b:7d:c6:bb:e7:cb:41:8c:43:b2:24:1d:17:ee:dc:7d:3d:32:
         b2:d5:dc:62:54:69:ad:43:33:ca:98:b1:1d:f8:75:65:a8:ba:
         3c:f7:cb:8e:2f:52:12:62:46:00:d3:27:cb:af:0f:3b:6d:d3:
         f4:bd:39:fb:08:fc:84:72:3a:dc:cd:2b:ca:41:18:fe:b7:77:
         c2:18:dc:f2:d8:95:a6:9f:59:02:a5:90:e3:dd:ce:57:20:18:
         ae:34:23:b0:b7:13:ca:42:81:3b:e1:bf:a6:9a:22:ed:0b:0d:
         85:ec:cc:f9:28:57:13:80:04:12:a3:b6:b6:30:22:24:a0:82:
         d5:06:b2:22:d5:d2:fa:b7:8d:a7:3c:2a:15:1d:7e:a3:a0:48:
         72:5f:12:97:ed:7f:bd:76:8a:72:04:f4:14:4e:e4:1f:07:fa:
         bf:cd:da:02:b9:83:94:ac:75:a8:0e:df:8d:58:3e:4c:4c:c9:
         fb:c6:ba:12:4c:26:2e:84:01:52:11:e2:5a:2f:1b:ae:1e:0e:
         7c:cf:0a:e0:45:3c:53:41:b3:8b:fc:07:63:97:03:28:1b:ff:
         7c:13:f7:02:6c:60:1b:f8:e5:f8:d0:89:e6:f9:4b:d5:4b:1b:
         48:21:dc:a1:72:a5:26:0a:46:9d:79:d5:8b:e7:d2:a1:29:98:
         fb:76:d8:2b:66:60:89:a8:6a:06:90:c7:b8:26:d8:0e:42:d4:
         a4:08:14:53:28:da:a5:0b:ab:0e:25:75:4a:f9:23:bd:a8:be:
         35:34:43:d8:cf:04:93:59:0a:bd:9f:27:e7:6f:b6:5e:82:96:
         d7:a3:95:e8:c3:19:5c:56
-----BEGIN CERTIFICATE-----
MIIFbjCCA1agAwIBAgIQXvkWF7hZF0rDNHzs1536jTANBgkqhkiG9w0BAQsFADAT
MREwDwYDVQQDDAhPdXRzY2FsZTAeFw0yMTA4MTgxMjA1MzdaFw0yMzA4MDgxMjA1
MzdaMB0xGzAZBgNVBAMMEklULTItUFJELXJzeXNsb2ctMTCCAiIwDQYJKoZIhvcN
AQEBBQADggIPADCCAgoCggIBAMX/NZJfzsRhSO3ACJGvr2cEKSD4KH0sXWduv4bH
W6gz86AEgn0P8wd7M3cUCWI8o6YlLqwqyxf0s7xWbpIi1MmqQ29MntB/+P3PaGEV
ovJjWJM2u0UUhjH553Qj96bEG61b7S0cDxlKabkbmMEIFVXk/jlEwDR6+R5qQ2md
0nz1iXX6Jixv73dylCBWa2uvfvG+VeOLzMkhQlXbhQCTqW5aRDezPXaI6GJnGru0
dNE1Y2AopgaBxqT/Xnh+TT3PLA/Uq0Vje9yCkZYf1oJGyFQ5I4i6rkHTwrCoZQnI
ck1Q7p7n2t6PqeGB9Q/TX4Bhrb92c0TKPPA05olEYBAl3N0OzutbVmhsgypDJE1S
anlrD7Ee2ovieGUCg71jrvT86YPcJXgrxsT3NXGGUKLqPBFGbvKsPcmTMfNdtvGN
4aTrU3CSBTkMSeb8VbgmGLfun78wDn6JCQn+OQcGEkWpmpPCFBIYwZuvUeacG7jp
TSGjWzEPXuA40Qrqc1UwGFUiNI4zPn8Fq5G1+cLqk3KhOxjDvZLbkgGyVGymFdoA
FhICmDdRrCrqrlTZDYtmlxL1GgIr9fB4TUNGIAjBtfFgcStNyj6qt+Gvs/jCUOLs
6/ncsdc/d+2b/oHmoClvXDTilzbJBkpLek1AM0c0uSYujNjB4mEjFVkUMqOYPv0j
ZUSzAgMBAAGjgbMwgbAwCQYDVR0TBAIwADAdBgNVHQ4EFgQUyG4AOmEpwZhfwfil
R1rSWGAc6EQwQwYDVR0jBDwwOoAUQVDHrXq2vDTixH7YARhCvcXc/+ehF6QVMBMx
ETAPBgNVBAMMCE91dHNjYWxlggkAgDP6YFAHfYAwCwYDVR0PBAQDAgWgMBMGA1Ud
JQQMMAoGCCsGAQUFBwMCMB0GA1UdEQQWMBSCEklULTItUFJELXJzeXNsb2ctMTAN
BgkqhkiG9w0BAQsFAAOCAgEAlKeC2NHYzkkd/h7eld8C9zvIJ0oCiMr9cMoQWL1v
UO6JKKgdZj2+XUTiI2BQkc9CfWxCMSMrh7TpqP+eONQalB631Q0Te8ej2/D7oo64
a/3kaxfPuBLP5HoCzqtXQbrhMJKw5dI6rr/0B5p7bxj/mrohK3NFATbQ6g4GHs9B
+WNcV6cgAcv2i3oQtU55mZKJSGaKyYT7BCUnAb+J7ZxDfeND80FeJ9JXmKJrx/Qb
NmqVWWoen3gOusVu/ImXD4tA4BaStT5lG33Gu+fLQYxDsiQdF+7cfT0ystXcYlRp
rUMzypixHfh1Zai6PPfLji9SEmJGANMny68PO23T9L05+wj8hHI63M0rykEY/rd3
whjc8tiVpp9ZAqWQ493OVyAYrjQjsLcTykKBO+G/ppoi7QsNhezM+ShXE4AEEqO2
tjAiJKCC1QayItXS+reNpzwqFR1+o6BIcl8Sl+1/vXaKcgT0FE7kHwf6v83aArmD
lKx1qA7fjVg+TEzJ+8a6EkwmLoQBUhHiWi8brh4OfM8K4EU8U0Gzi/wHY5cDKBv/
fBP3AmxgG/jl+NCJ5vlL1UsbSCHcoXKlJgpGnXnVi+fSoSmY+3bYK2ZgiahqBpDH
uCbYDkLUpAgUUyjapQurDiV1Svkjvai+NTRD2M8Ek1kKvZ8n52+2XoKW16OV6MMZ
XFY=
-----END CERTIFICATE-----
