Certificate:
    Data:
        Version: 3 (0x2)
        Serial Number:
            38:a1:58:05:bd:e8:2c:82:9c:8c:1e:cf:43:5d:93:0e
    Signature Algorithm: sha256WithRSAEncryption
        Issuer: CN=Outscale
        Validity
            Not Before: Aug 18 12:04:27 2021 GMT
            Not After : Aug  8 12:04:27 2023 GMT
        Subject: CN=IT-2-PPRD-rsyslog-2
        Subject Public Key Info:
            Public Key Algorithm: rsaEncryption
                Public-Key: (4096 bit)
                Modulus:
                    00:d3:05:df:f6:ba:fc:7e:3b:61:a9:89:e9:bf:09:
                    78:51:c3:01:dd:ab:4d:8a:3c:79:cd:ee:96:50:f0:
                    d1:ca:a8:c2:8f:e1:ff:8a:3e:62:53:f3:ac:c5:d8:
                    25:3e:87:61:84:69:fd:7b:bb:15:d3:35:b8:3c:05:
                    8e:70:3b:d3:3b:10:76:f0:33:4f:a1:34:a0:1c:1c:
                    96:bc:f1:4b:44:02:3d:15:ab:89:af:0c:4d:02:11:
                    e3:54:fc:12:e9:e0:43:05:71:e0:41:32:df:15:b9:
                    05:c4:a1:08:34:2e:6f:a7:ec:a7:9b:05:83:86:cd:
                    9c:1d:ee:09:fe:43:b5:df:e9:19:2e:4b:d8:10:37:
                    1d:72:50:bc:d6:dc:36:9a:3a:30:c9:ce:c3:68:87:
                    e6:40:66:b5:6e:a5:4e:e2:8d:a7:76:00:f3:26:97:
                    49:02:cb:2b:cf:4d:71:b2:03:62:d7:04:1f:b2:bb:
                    70:37:f8:a4:af:73:05:78:28:1d:a8:43:e2:8b:2a:
                    a9:18:29:a8:c2:59:95:ab:1d:01:07:9e:fe:ce:48:
                    f8:32:60:0a:06:99:e6:32:87:22:8b:50:ff:ac:96:
                    42:f8:e2:68:df:e2:c6:1b:28:7e:30:4a:0a:aa:81:
                    29:2a:ef:a0:0b:bc:b0:75:14:1e:c6:aa:9c:cd:0a:
                    88:d9:f4:50:7f:06:67:53:3f:e3:6d:f6:a8:0c:75:
                    ad:5c:05:50:e8:8e:33:b1:d9:0e:b9:19:39:a4:c9:
                    68:02:91:65:13:5d:bc:d5:4f:7a:93:39:37:f5:60:
                    b7:d9:4e:2f:64:db:bf:e5:63:70:a5:fb:57:1c:0a:
                    58:54:d1:4b:c0:df:94:d4:be:a5:60:66:67:62:72:
                    00:4a:6c:2a:8e:14:35:dd:58:74:e5:b5:fe:0e:fd:
                    ec:8f:ff:ce:6d:e9:bb:3d:45:f3:2d:7e:f1:01:11:
                    75:7b:8e:2d:a7:58:60:d8:6c:bf:f8:10:ab:06:8f:
                    91:a9:49:3c:b2:97:a0:a6:b6:c5:d6:67:df:f1:11:
                    cd:ae:0a:5e:56:d6:99:7d:49:90:dc:e5:ae:b1:6d:
                    ce:bb:9f:cd:4a:69:92:22:a4:f7:0b:42:fe:88:71:
                    4a:92:59:2f:00:13:80:3f:1e:e6:ae:14:07:8a:18:
                    3e:08:54:22:62:b8:cb:c3:fa:e7:56:73:8e:14:d9:
                    e1:36:5a:aa:41:31:97:a5:cd:50:e5:50:11:ec:b7:
                    11:10:a5:b6:c8:15:f5:1e:a4:d2:87:88:99:b4:17:
                    8b:da:ba:f9:40:ce:70:7d:40:c7:18:d3:a3:e1:c0:
                    43:f6:4d:cd:b6:bc:03:2a:4c:53:b6:62:69:11:cd:
                    47:c9:6b
                Exponent: 65537 (0x10001)
        X509v3 extensions:
            X509v3 Basic Constraints:
                CA:FALSE
            X509v3 Subject Key Identifier:
                30:E2:17:57:16:B2:E0:AC:A5:82:D7:92:1E:8D:65:CE:D9:C5:BC:3B
            X509v3 Authority Key Identifier:
                keyid:41:50:C7:AD:7A:B6:BC:34:E2:C4:7E:D8:01:18:42:BD:C5:DC:FF:E7
                DirName:/CN=Outscale
                serial:80:33:FA:60:50:07:7D:80

            X509v3 Key Usage:
                Digital Signature, Key Encipherment
            X509v3 Extended Key Usage:
                TLS Web Client Authentication
            X509v3 Subject Alternative Name:
                DNS:IT-2-PPRD-rsyslog-2
    Signature Algorithm: sha256WithRSAEncryption
         ac:41:c7:61:3a:57:78:d4:84:75:e7:e8:46:a3:6a:6d:09:cb:
         07:de:26:74:d1:30:20:45:55:1d:e4:6e:df:95:81:bf:d1:a1:
         f2:aa:4e:53:29:4c:a6:c5:30:63:08:76:5d:e9:88:d1:dc:3b:
         4b:8d:af:7d:53:6c:c2:99:e3:62:7d:15:89:d1:04:5c:74:a0:
         26:e9:0d:f6:e0:90:93:60:c4:e4:b4:bd:c6:a7:01:0f:68:73:
         ee:94:2e:ab:b4:54:2d:7f:80:c5:17:59:5a:74:a8:19:c3:74:
         f6:8f:23:6a:08:77:72:4b:53:c0:d7:0d:15:46:a6:d3:11:b4:
         a0:64:f0:3a:54:68:f8:a1:42:1b:d9:8a:c6:07:b3:1c:b2:80:
         9d:d8:c3:40:4e:6e:d7:39:2c:2f:9a:18:3a:fa:88:da:f7:b0:
         5e:22:a9:40:43:11:75:8b:1d:dc:3f:93:f5:ac:9a:06:cf:2f:
         6a:f8:24:d6:c9:0c:b6:0b:90:f7:5a:37:07:ae:b6:c6:a3:e9:
         a8:17:ac:2c:62:71:4a:86:76:6c:85:3b:cd:47:6d:ab:49:fe:
         f0:a9:6c:d7:5d:c6:22:0c:b6:24:6d:50:fa:3a:5a:97:aa:23:
         0f:92:2e:93:cd:9e:b5:1e:58:51:12:98:80:5d:21:00:98:38:
         35:21:f3:13:4f:a3:7c:6d:0c:71:04:44:41:46:1a:37:85:16:
         96:36:ea:fe:91:38:18:3b:52:2c:fc:90:ca:6d:a7:ad:f8:e4:
         42:73:f7:47:76:6f:2f:c1:4a:55:a4:ec:b4:17:02:08:22:00:
         ff:16:f3:63:a8:10:4d:4a:9d:b9:23:33:4c:c3:ab:d4:a0:10:
         d6:4e:e0:45:aa:4f:78:6a:06:1b:53:64:66:ba:5e:7e:ad:9e:
         0c:a8:1b:df:0f:af:46:49:6a:61:75:93:8c:00:b7:77:53:47:
         dc:4b:75:79:19:83:37:e9:50:8f:8d:1e:51:7b:a5:f3:bc:4e:
         23:09:45:ed:64:78:60:f8:c4:ef:b4:35:db:9f:6c:e0:c2:98:
         22:c8:e4:b4:c8:4e:cd:48:fe:19:79:52:c4:3a:5f:03:f7:c7:
         4c:85:24:bc:19:bc:5c:f2:d3:d9:1f:ff:e3:f8:bc:8f:c6:7c:
         b6:03:27:ea:6c:2a:aa:86:aa:5b:0e:a1:c8:10:be:a1:e2:30:
         65:6a:4f:9d:51:8a:37:49:2b:10:fe:52:39:28:65:54:c3:c7:
         43:6d:41:ae:85:6b:16:a3:bd:5e:ec:bf:8e:18:d4:1f:4a:49:
         bd:1c:0a:f8:d4:f2:f5:6c:0e:18:56:fb:5a:de:bc:e6:55:e8:
         aa:34:e2:21:e0:79:84:fe
-----BEGIN CERTIFICATE-----
MIIFcDCCA1igAwIBAgIQOKFYBb3oLIKcjB7PQ12TDjANBgkqhkiG9w0BAQsFADAT
MREwDwYDVQQDDAhPdXRzY2FsZTAeFw0yMTA4MTgxMjA0MjdaFw0yMzA4MDgxMjA0
MjdaMB4xHDAaBgNVBAMME0lULTItUFBSRC1yc3lzbG9nLTIwggIiMA0GCSqGSIb3
DQEBAQUAA4ICDwAwggIKAoICAQDTBd/2uvx+O2Gpiem/CXhRwwHdq02KPHnN7pZQ
8NHKqMKP4f+KPmJT86zF2CU+h2GEaf17uxXTNbg8BY5wO9M7EHbwM0+hNKAcHJa8
8UtEAj0Vq4mvDE0CEeNU/BLp4EMFceBBMt8VuQXEoQg0Lm+n7KebBYOGzZwd7gn+
Q7Xf6RkuS9gQNx1yULzW3DaaOjDJzsNoh+ZAZrVupU7ijad2APMml0kCyyvPTXGy
A2LXBB+yu3A3+KSvcwV4KB2oQ+KLKqkYKajCWZWrHQEHnv7OSPgyYAoGmeYyhyKL
UP+slkL44mjf4sYbKH4wSgqqgSkq76ALvLB1FB7GqpzNCojZ9FB/BmdTP+Nt9qgM
da1cBVDojjOx2Q65GTmkyWgCkWUTXbzVT3qTOTf1YLfZTi9k27/lY3Cl+1ccClhU
0UvA35TUvqVgZmdicgBKbCqOFDXdWHTltf4O/eyP/85t6bs9RfMtfvEBEXV7ji2n
WGDYbL/4EKsGj5GpSTyyl6CmtsXWZ9/xEc2uCl5W1pl9SZDc5a6xbc67n81KaZIi
pPcLQv6IcUqSWS8AE4A/HuauFAeKGD4IVCJiuMvD+udWc44U2eE2WqpBMZelzVDl
UBHstxEQpbbIFfUepNKHiJm0F4vauvlAznB9QMcY06PhwEP2Tc22vAMqTFO2YmkR
zUfJawIDAQABo4G0MIGxMAkGA1UdEwQCMAAwHQYDVR0OBBYEFDDiF1cWsuCspYLX
kh6NZc7Zxbw7MEMGA1UdIwQ8MDqAFEFQx616trw04sR+2AEYQr3F3P/noRekFTAT
MREwDwYDVQQDDAhPdXRzY2FsZYIJAIAz+mBQB32AMAsGA1UdDwQEAwIFoDATBgNV
HSUEDDAKBggrBgEFBQcDAjAeBgNVHREEFzAVghNJVC0yLVBQUkQtcnN5c2xvZy0y
MA0GCSqGSIb3DQEBCwUAA4ICAQCsQcdhOld41IR15+hGo2ptCcsH3iZ00TAgRVUd
5G7flYG/0aHyqk5TKUymxTBjCHZd6YjR3DtLja99U2zCmeNifRWJ0QRcdKAm6Q32
4JCTYMTktL3GpwEPaHPulC6rtFQtf4DFF1ladKgZw3T2jyNqCHdyS1PA1w0VRqbT
EbSgZPA6VGj4oUIb2YrGB7McsoCd2MNATm7XOSwvmhg6+oja97BeIqlAQxF1ix3c
P5P1rJoGzy9q+CTWyQy2C5D3WjcHrrbGo+moF6wsYnFKhnZshTvNR22rSf7wqWzX
XcYiDLYkbVD6OlqXqiMPki6TzZ61HlhREpiAXSEAmDg1IfMTT6N8bQxxBERBRho3
hRaWNur+kTgYO1Is/JDKbaet+ORCc/dHdm8vwUpVpOy0FwIIIgD/FvNjqBBNSp25
IzNMw6vUoBDWTuBFqk94agYbU2Rmul5+rZ4MqBvfD69GSWphdZOMALd3U0fcS3V5
GYM36VCPjR5Re6XzvE4jCUXtZHhg+MTvtDXbn2zgwpgiyOS0yE7NSP4ZeVLEOl8D
98dMhSS8Gbxc8tPZH//j+LyPxny2AyfqbCqqhqpbDqHIEL6h4jBlak+dUYo3SSsQ
/lI5KGVUw8dDbUGuhWsWo71e7L+OGNQfSkm9HAr41PL1bA4YVvta3rzmVeiqNOIh
4HmE/g==
-----END CERTIFICATE-----
