Certificate:
    Data:
        Version: 3 (0x2)
        Serial Number:
            db:a0:5d:bf:12:c1:61:58:f5:bd:2d:80:07:48:8c:5b
    Signature Algorithm: sha256WithRSAEncryption
        Issuer: CN=Outscale
        Validity
            Not Before: Aug 18 12:04:12 2021 GMT
            Not After : Aug  8 12:04:12 2023 GMT
        Subject: CN=IT-2-PPRD-rsyslog-1
        Subject Public Key Info:
            Public Key Algorithm: rsaEncryption
                Public-Key: (4096 bit)
                Modulus:
                    00:b3:30:31:e2:fc:fd:52:96:c4:8f:79:ad:23:e8:
                    67:4a:66:3e:19:c1:c0:31:86:21:3f:13:e7:f1:b8:
                    4d:a2:b2:87:19:08:7d:9a:b5:af:34:f0:3b:26:df:
                    ac:92:40:87:d8:ea:14:23:5b:32:1c:57:5a:66:bc:
                    b2:1f:36:57:9c:8b:3c:b4:94:b6:e1:52:11:c3:d2:
                    99:b7:14:b6:73:6e:66:38:ed:02:85:48:0d:9d:9f:
                    81:48:28:05:23:6d:5e:39:17:25:52:8b:38:e2:4e:
                    2c:05:0f:e5:eb:83:9b:cd:2a:72:3f:37:a8:39:9d:
                    60:d6:91:91:fb:91:76:d5:32:9d:a5:aa:2c:c8:c7:
                    51:2d:98:27:4a:a2:57:61:bf:7d:ea:f4:f6:a8:be:
                    ee:cb:54:09:04:4a:01:2c:27:19:85:c5:6f:c1:44:
                    c5:33:bd:1f:f4:53:37:54:6b:55:12:20:d7:41:ec:
                    7a:19:d4:2c:f5:3b:80:33:57:6d:b1:8e:e3:23:6b:
                    4e:5f:43:90:66:2d:12:39:4e:8c:e0:92:79:e4:42:
                    15:3a:da:a2:f2:61:2f:3c:23:30:3e:2f:65:5d:77:
                    e9:c8:1e:38:d5:a2:03:ef:bd:1e:3f:08:0a:96:81:
                    63:7a:63:64:de:55:fa:7b:e3:8b:09:c9:c6:d0:2b:
                    6b:dd:0f:d6:a7:6f:37:1e:6d:d4:14:be:72:77:0a:
                    54:52:32:36:80:c1:ab:29:91:60:c3:4e:16:3e:85:
                    d4:a4:c0:57:e0:5c:90:9b:07:d6:74:80:60:3d:45:
                    54:48:8d:13:36:ec:14:cf:48:78:4e:52:9c:9f:aa:
                    16:95:14:75:3f:b3:02:56:a0:96:76:17:0f:f0:3a:
                    1e:77:02:0c:1d:1d:6f:5a:35:22:fa:e0:a2:9a:9a:
                    bd:ce:6a:83:a8:82:94:ee:40:d1:49:3a:7a:f6:7c:
                    9d:88:ba:1b:8c:4e:8a:20:14:3d:b5:78:dd:7f:4b:
                    4c:61:43:4f:37:7a:5a:f7:2c:4b:ef:01:d3:85:df:
                    a9:68:9e:78:70:b8:4c:96:fb:d1:c7:65:f0:ce:65:
                    2d:6d:fc:27:bc:ea:60:86:50:b3:83:8d:20:9e:24:
                    5a:78:49:93:de:33:57:85:d0:a3:f2:4f:0d:d2:cc:
                    bf:00:7e:ba:eb:76:a6:d3:4e:c7:b3:99:46:87:e2:
                    66:0b:db:fa:d3:12:d8:d8:ae:7c:d9:de:9a:b1:92:
                    7f:62:65:c1:5c:0b:09:96:a0:be:53:29:2a:40:2c:
                    34:77:f6:d6:78:c2:93:e0:31:fe:ad:27:1f:2d:3a:
                    30:65:64:ef:03:ab:fe:cc:e4:c9:87:6e:04:c4:1c:
                    90:da:4b
                Exponent: 65537 (0x10001)
        X509v3 extensions:
            X509v3 Basic Constraints:
                CA:FALSE
            X509v3 Subject Key Identifier:
                12:83:CD:4E:B2:1C:E5:C5:EC:A6:82:D0:09:5E:80:0D:1A:04:F7:C1
            X509v3 Authority Key Identifier:
                keyid:41:50:C7:AD:7A:B6:BC:34:E2:C4:7E:D8:01:18:42:BD:C5:DC:FF:E7
                DirName:/CN=Outscale
                serial:80:33:FA:60:50:07:7D:80

            X509v3 Key Usage:
                Digital Signature, Key Encipherment
            X509v3 Extended Key Usage:
                TLS Web Client Authentication
            X509v3 Subject Alternative Name:
                DNS:IT-2-PPRD-rsyslog-1
    Signature Algorithm: sha256WithRSAEncryption
         97:ab:47:7d:43:3b:7e:13:2c:6e:fe:cd:03:39:fa:86:16:51:
         1f:fc:f5:8d:00:05:48:b7:bb:aa:36:92:9d:8b:e6:e3:06:69:
         31:cd:a9:03:62:69:7a:63:1d:ce:98:16:9c:db:a2:e8:87:e2:
         ec:bf:1e:87:8f:25:4f:cd:95:f1:1c:7d:ed:dd:4a:16:82:92:
         ff:d7:ba:5d:36:43:cd:4e:e6:d8:80:2a:45:19:f0:f8:65:dc:
         b1:7e:b1:7d:6e:a7:85:91:02:26:9c:df:46:a2:29:62:a8:9a:
         da:44:93:c0:c5:7e:c6:64:e4:12:15:37:da:da:d2:9f:f7:15:
         db:01:51:64:2c:2b:45:15:d8:40:f0:97:01:79:35:0d:11:2f:
         c9:07:0e:38:2c:f4:8a:be:62:26:a9:11:23:72:cf:31:9d:a0:
         23:9c:99:62:1e:08:c6:41:c2:61:dd:57:c0:6d:db:5a:c4:38:
         c3:2c:3b:3d:c6:97:11:5d:d4:8c:44:1d:9d:c3:46:ce:2b:19:
         96:d6:99:05:f1:d3:77:4a:11:ff:ac:7a:1e:c0:9a:5b:ad:58:
         ea:ec:6d:86:46:5d:c7:14:9a:37:ef:21:34:a1:c7:36:a3:a1:
         77:ca:23:c7:42:fa:39:21:cc:eb:f6:44:36:6e:1a:ca:ad:c3:
         71:8a:e2:ff:94:b7:47:6f:0d:dd:92:da:89:25:58:4d:ec:e3:
         1d:cf:e7:90:b8:4c:df:01:3b:c5:86:20:86:74:21:d8:f9:bf:
         8f:22:0b:b5:f2:ad:93:21:91:9f:20:06:f9:14:f9:92:f3:80:
         3a:29:b5:d0:91:fa:90:f7:50:08:5e:f1:ac:1f:fd:cc:bb:22:
         54:3f:a3:62:19:2b:c5:68:18:e8:46:a4:c2:2b:e6:2f:7a:fd:
         22:65:a5:f8:33:18:7d:01:35:65:2d:89:22:70:60:a0:f5:df:
         a0:c2:7d:5e:66:66:8c:a8:98:23:d6:ce:d5:0e:ef:9a:a2:13:
         0c:e8:39:73:46:e7:28:f9:e9:d9:f1:67:d6:0b:23:56:d2:55:
         76:83:40:9d:1c:b5:f3:c6:b4:39:d3:fb:db:93:6a:fa:dd:3b:
         fa:4d:d6:26:33:8a:30:20:33:f8:67:5e:0a:6d:62:c6:12:b2:
         63:92:5b:48:c7:57:02:51:89:b7:8b:a5:19:3a:e0:fe:37:7b:
         e8:f1:8d:2f:81:0f:42:db:26:b7:5b:2a:97:18:25:06:2f:50:
         99:09:a5:d9:ec:64:f9:c3:44:ca:ab:5d:19:fc:9a:97:bd:7d:
         ca:a2:31:23:38:dd:05:72:52:b4:b6:1a:c2:99:4f:13:44:6a:
         1e:ef:e2:b0:e2:0c:35:b0
-----BEGIN CERTIFICATE-----
MIIFcTCCA1mgAwIBAgIRANugXb8SwWFY9b0tgAdIjFswDQYJKoZIhvcNAQELBQAw
EzERMA8GA1UEAwwIT3V0c2NhbGUwHhcNMjEwODE4MTIwNDEyWhcNMjMwODA4MTIw
NDEyWjAeMRwwGgYDVQQDDBNJVC0yLVBQUkQtcnN5c2xvZy0xMIICIjANBgkqhkiG
9w0BAQEFAAOCAg8AMIICCgKCAgEAszAx4vz9UpbEj3mtI+hnSmY+GcHAMYYhPxPn
8bhNorKHGQh9mrWvNPA7Jt+skkCH2OoUI1syHFdaZryyHzZXnIs8tJS24VIRw9KZ
txS2c25mOO0ChUgNnZ+BSCgFI21eORclUos44k4sBQ/l64ObzSpyPzeoOZ1g1pGR
+5F21TKdpaosyMdRLZgnSqJXYb996vT2qL7uy1QJBEoBLCcZhcVvwUTFM70f9FM3
VGtVEiDXQex6GdQs9TuAM1dtsY7jI2tOX0OQZi0SOU6M4JJ55EIVOtqi8mEvPCMw
Pi9lXXfpyB441aID770ePwgKloFjemNk3lX6e+OLCcnG0Ctr3Q/Wp283Hm3UFL5y
dwpUUjI2gMGrKZFgw04WPoXUpMBX4FyQmwfWdIBgPUVUSI0TNuwUz0h4TlKcn6oW
lRR1P7MCVqCWdhcP8DoedwIMHR1vWjUi+uCimpq9zmqDqIKU7kDRSTp69nydiLob
jE6KIBQ9tXjdf0tMYUNPN3pa9yxL7wHThd+paJ54cLhMlvvRx2XwzmUtbfwnvOpg
hlCzg40gniRaeEmT3jNXhdCj8k8N0sy/AH6663am007Hs5lGh+JmC9v60xLY2K58
2d6asZJ/YmXBXAsJlqC+UykqQCw0d/bWeMKT4DH+rScfLTowZWTvA6v+zOTJh24E
xByQ2ksCAwEAAaOBtDCBsTAJBgNVHRMEAjAAMB0GA1UdDgQWBBQSg81Oshzlxeym
gtAJXoANGgT3wTBDBgNVHSMEPDA6gBRBUMetera8NOLEftgBGEK9xdz/56EXpBUw
EzERMA8GA1UEAwwIT3V0c2NhbGWCCQCAM/pgUAd9gDALBgNVHQ8EBAMCBaAwEwYD
VR0lBAwwCgYIKwYBBQUHAwIwHgYDVR0RBBcwFYITSVQtMi1QUFJELXJzeXNsb2ct
MTANBgkqhkiG9w0BAQsFAAOCAgEAl6tHfUM7fhMsbv7NAzn6hhZRH/z1jQAFSLe7
qjaSnYvm4wZpMc2pA2JpemMdzpgWnNui6Ifi7L8eh48lT82V8Rx97d1KFoKS/9e6
XTZDzU7m2IAqRRnw+GXcsX6xfW6nhZECJpzfRqIpYqia2kSTwMV+xmTkEhU32trS
n/cV2wFRZCwrRRXYQPCXAXk1DREvyQcOOCz0ir5iJqkRI3LPMZ2gI5yZYh4IxkHC
Yd1XwG3bWsQ4wyw7PcaXEV3UjEQdncNGzisZltaZBfHTd0oR/6x6HsCaW61Y6uxt
hkZdxxSaN+8hNKHHNqOhd8ojx0L6OSHM6/ZENm4ayq3DcYri/5S3R28N3ZLaiSVY
TezjHc/nkLhM3wE7xYYghnQh2Pm/jyILtfKtkyGRnyAG+RT5kvOAOim10JH6kPdQ
CF7xrB/9zLsiVD+jYhkrxWgY6EakwivmL3r9ImWl+DMYfQE1ZS2JInBgoPXfoMJ9
XmZmjKiYI9bO1Q7vmqITDOg5c0bnKPnp2fFn1gsjVtJVdoNAnRy188a0OdP725Nq
+t07+k3WJjOKMCAz+GdeCm1ixhKyY5JbSMdXAlGJt4ulGTrg/jd76PGNL4EPQtsm
t1sqlxglBi9QmQml2exk+cNEyqtdGfyal719yqIxIzjdBXJStLYawplPE0RqHu/i
sOIMNbA=
-----END CERTIFICATE-----
